target datalayout = "e-m:e-p270:32:32-p271:32:32-p272:64:64-i64:64-i128:128-f80:128-n8:16:32:64-S128"
target triple = "x86_64-pc-linux-gnu"

@testctx = internal global ptr null, align 8
@.str.18 = private unnamed_addr constant [33 x i8] c"../openssl/test/evp_extra_test.c\00", align 1
@.str.112 = private unnamed_addr constant [2 x i8] c"0\00", align 1
@testpropq = internal global ptr null, align 8
@.str.158 = private unnamed_addr constant [9 x i8] c"expected\00", align 1
@.str.344 = private unnamed_addr constant [62 x i8] c"pctx = EVP_PKEY_CTX_new_from_name(testctx, \22HKDF\22, testpropq)\00", align 1
@.str.345 = private unnamed_addr constant [5 x i8] c"HKDF\00", align 1
@.str.346 = private unnamed_addr constant [27 x i8] c"EVP_PKEY_derive_init(pctx)\00", align 1
@.str.347 = private unnamed_addr constant [45 x i8] c"EVP_PKEY_CTX_set_hkdf_md(pctx, EVP_sha256())\00", align 1
@.str.348 = private unnamed_addr constant [58 x i8] c"EVP_PKEY_CTX_set1_hkdf_salt(pctx, salt, sizeof(salt) - 1)\00", align 1
@.str.349 = private unnamed_addr constant [55 x i8] c"EVP_PKEY_CTX_set1_hkdf_key(pctx, key, sizeof(key) - 1)\00", align 1
@.str.350 = private unnamed_addr constant [58 x i8] c"EVP_PKEY_CTX_add1_hkdf_info(pctx, info, sizeof(info) - 1)\00", align 1
@.str.351 = private unnamed_addr constant [36 x i8] c"EVP_PKEY_derive(pctx, out, &outlen)\00", align 1
@.str.352 = private unnamed_addr constant [4 x i8] c"out\00", align 1
@__const.test_emptyikm_HKDF.salt = private unnamed_addr constant [11 x i8] c"9876543210\00", align 1
@__const.test_emptyikm_HKDF.info = private unnamed_addr constant [11 x i8] c"stringinfo\00", align 1
@__const.test_emptyikm_HKDF.expected = private unnamed_addr constant [20 x i8] c"h\81\A5>[\9C{o.\EC\C8G|\FAG5f\82\150", align 16

; Function Attrs: nounwind uwtable
define internal i32 @test_emptyikm_HKDF() #0 {
  %1 = alloca ptr, align 8
  %2 = alloca [20 x i8], align 16
  %3 = alloca i64, align 8
  %4 = alloca i32, align 4
  %5 = alloca [11 x i8], align 1
  %6 = alloca [1 x i8], align 1
  %7 = alloca [11 x i8], align 1
  %8 = alloca [20 x i8], align 16
  %9 = alloca i64, align 8
  call void @llvm.lifetime.start.p0(i64 8, ptr %1) #8
  call void @llvm.lifetime.start.p0(i64 20, ptr %2) #8
  call void @llvm.lifetime.start.p0(i64 8, ptr %3) #8
  call void @llvm.lifetime.start.p0(i64 4, ptr %4) #8
  store i32 0, ptr %4, align 4, !tbaa !9
  call void @llvm.lifetime.start.p0(i64 11, ptr %5) #8
  call void @llvm.memcpy.p0.p0.i64(ptr align 1 %5, ptr align 1 @__const.test_emptyikm_HKDF.salt, i64 11, i1 false)
  call void @llvm.lifetime.start.p0(i64 1, ptr %6) #8
  call void @llvm.memset.p0.i64(ptr align 1 %6, i8 0, i64 1, i1 false)
  call void @llvm.lifetime.start.p0(i64 11, ptr %7) #8
  call void @llvm.memcpy.p0.p0.i64(ptr align 1 %7, ptr align 1 @__const.test_emptyikm_HKDF.info, i64 11, i1 false)
  call void @llvm.lifetime.start.p0(i64 20, ptr %8) #8
  call void @llvm.memcpy.p0.p0.i64(ptr align 16 %8, ptr align 16 @__const.test_emptyikm_HKDF.expected, i64 20, i1 false)
  call void @llvm.lifetime.start.p0(i64 8, ptr %9) #8
  store i64 20, ptr %9, align 8, !tbaa !23
  %10 = load ptr, ptr @testctx, align 8, !tbaa !11
  %11 = load ptr, ptr @testpropq, align 8, !tbaa !4
  %12 = call ptr @EVP_PKEY_CTX_new_from_name(ptr noundef %10, ptr noundef @.str.345, ptr noundef %11)
  store ptr %12, ptr %1, align 8, !tbaa !29
  %13 = call i32 @test_ptr(ptr noundef @.str.18, i32 noundef 3325, ptr noundef @.str.344, ptr noundef %12)
  %14 = icmp ne i32 %13, 0
  br i1 %14, label %16, label %15

15:                                               ; preds = %0
  br label %62

16:                                               ; preds = %0
  store i64 20, ptr %3, align 8, !tbaa !23
  %17 = getelementptr inbounds [20 x i8], ptr %2, i64 0, i64 0
  %18 = load i64, ptr %3, align 8, !tbaa !23
  call void @llvm.memset.p0.i64(ptr align 16 %17, i8 0, i64 %18, i1 false)
  %19 = load ptr, ptr %1, align 8, !tbaa !29
  %20 = call i32 @EVP_PKEY_derive_init(ptr noundef %19)
  %21 = call i32 @test_int_gt(ptr noundef @.str.18, i32 noundef 3331, ptr noundef @.str.346, ptr noundef @.str.112, i32 noundef %20, i32 noundef 0)
  %22 = icmp ne i32 %21, 0
  br i1 %22, label %23, label %60

23:                                               ; preds = %16
  %24 = load ptr, ptr %1, align 8, !tbaa !29
  %25 = call ptr @EVP_sha256()
  %26 = call i32 @EVP_PKEY_CTX_set_hkdf_md(ptr noundef %24, ptr noundef %25)
  %27 = call i32 @test_int_gt(ptr noundef @.str.18, i32 noundef 3332, ptr noundef @.str.347, ptr noundef @.str.112, i32 noundef %26, i32 noundef 0)
  %28 = icmp ne i32 %27, 0
  br i1 %28, label %29, label %60

29:                                               ; preds = %23
  %30 = load ptr, ptr %1, align 8, !tbaa !29
  %31 = getelementptr inbounds [11 x i8], ptr %5, i64 0, i64 0
  %32 = call i32 @EVP_PKEY_CTX_set1_hkdf_salt(ptr noundef %30, ptr noundef %31, i32 noundef 10)
  %33 = call i32 @test_int_gt(ptr noundef @.str.18, i32 noundef 3334, ptr noundef @.str.348, ptr noundef @.str.112, i32 noundef %32, i32 noundef 0)
  %34 = icmp ne i32 %33, 0
  br i1 %34, label %35, label %60

35:                                               ; preds = %29
  %36 = load ptr, ptr %1, align 8, !tbaa !29
  %37 = getelementptr inbounds [1 x i8], ptr %6, i64 0, i64 0
  %38 = call i32 @EVP_PKEY_CTX_set1_hkdf_key(ptr noundef %36, ptr noundef %37, i32 noundef 0)
  %39 = call i32 @test_int_gt(ptr noundef @.str.18, i32 noundef 3336, ptr noundef @.str.349, ptr noundef @.str.112, i32 noundef %38, i32 noundef 0)
  %40 = icmp ne i32 %39, 0
  br i1 %40, label %41, label %60

41:                                               ; preds = %35
  %42 = load ptr, ptr %1, align 8, !tbaa !29
  %43 = getelementptr inbounds [11 x i8], ptr %7, i64 0, i64 0
  %44 = call i32 @EVP_PKEY_CTX_add1_hkdf_info(ptr noundef %42, ptr noundef %43, i32 noundef 10)
  %45 = call i32 @test_int_gt(ptr noundef @.str.18, i32 noundef 3338, ptr noundef @.str.350, ptr noundef @.str.112, i32 noundef %44, i32 noundef 0)
  %46 = icmp ne i32 %45, 0
  br i1 %46, label %47, label %60

47:                                               ; preds = %41
  %48 = load ptr, ptr %1, align 8, !tbaa !29
  %49 = getelementptr inbounds [20 x i8], ptr %2, i64 0, i64 0
  %50 = call i32 @EVP_PKEY_derive(ptr noundef %48, ptr noundef %49, ptr noundef %3)
  %51 = call i32 @test_int_gt(ptr noundef @.str.18, i32 noundef 3339, ptr noundef @.str.351, ptr noundef @.str.112, i32 noundef %50, i32 noundef 0)
  %52 = icmp ne i32 %51, 0
  br i1 %52, label %53, label %60

53:                                               ; preds = %47
  %54 = getelementptr inbounds [20 x i8], ptr %2, i64 0, i64 0
  %55 = load i64, ptr %3, align 8, !tbaa !23
  %56 = getelementptr inbounds [20 x i8], ptr %8, i64 0, i64 0
  %57 = load i64, ptr %9, align 8, !tbaa !23
  %58 = call i32 @test_mem_eq(ptr noundef @.str.18, i32 noundef 3340, ptr noundef @.str.352, ptr noundef @.str.158, ptr noundef %54, i64 noundef %55, ptr noundef %56, i64 noundef %57)
  %59 = icmp ne i32 %58, 0
  br i1 %59, label %61, label %60

60:                                               ; preds = %53, %47, %41, %35, %29, %23, %16
  br label %62

61:                                               ; preds = %53
  store i32 1, ptr %4, align 4, !tbaa !9
  br label %62

62:                                               ; preds = %61, %60, %15
  %63 = load ptr, ptr %1, align 8, !tbaa !29
  call void @EVP_PKEY_CTX_free(ptr noundef %63)
  %64 = load i32, ptr %4, align 4, !tbaa !9
  call void @llvm.lifetime.end.p0(i64 8, ptr %9) #8
  call void @llvm.lifetime.end.p0(i64 20, ptr %8) #8
  call void @llvm.lifetime.end.p0(i64 11, ptr %7) #8
  call void @llvm.lifetime.end.p0(i64 1, ptr %6) #8
  call void @llvm.lifetime.end.p0(i64 11, ptr %5) #8
  call void @llvm.lifetime.end.p0(i64 4, ptr %4) #8
  call void @llvm.lifetime.end.p0(i64 8, ptr %3) #8
  call void @llvm.lifetime.end.p0(i64 20, ptr %2) #8
  call void @llvm.lifetime.end.p0(i64 8, ptr %1) #8
  ret i32 %64
}