; Function Attrs: nounwind uwtable
define internal range(i32 0, 2) i32 @test_emptyikm_HKDF() #1 {
  %1 = alloca [20 x i8], align 16
  %2 = alloca i64, align 8
  %3 = alloca [11 x i8], align 1
  %4 = alloca [1 x i8], align 1
  %5 = alloca [11 x i8], align 1
  %6 = alloca [20 x i8], align 16
  call void @llvm.lifetime.start.p0(i64 20, ptr nonnull %1) #9
  call void @llvm.lifetime.start.p0(i64 8, ptr nonnull %2) #9
  call void @llvm.lifetime.start.p0(i64 11, ptr nonnull %3) #9
  call void @llvm.memcpy.p0.p0.i64(ptr noundef nonnull align 1 dereferenceable(11) %3, ptr noundef nonnull align 1 dereferenceable(11) @__const.test_emptyikm_HKDF.salt, i64 11, i1 false)
  call void @llvm.lifetime.start.p0(i64 1, ptr nonnull %4) #9
  store i8 0, ptr %4, align 1
  call void @llvm.lifetime.start.p0(i64 11, ptr nonnull %5) #9
  call void @llvm.memcpy.p0.p0.i64(ptr noundef nonnull align 1 dereferenceable(11) %5, ptr noundef nonnull align 1 dereferenceable(11) @__const.test_emptyikm_HKDF.info, i64 11, i1 false)
  call void @llvm.lifetime.start.p0(i64 20, ptr nonnull %6) #9
  call void @llvm.memcpy.p0.p0.i64(ptr noundef nonnull align 16 dereferenceable(20) %6, ptr noundef nonnull align 16 dereferenceable(20) @__const.test_emptyikm_HKDF.expected, i64 20, i1 false)
  %7 = load ptr, ptr @testctx, align 8, !tbaa !6
  %8 = tail call ptr @EVP_PKEY_CTX_new_from_name(ptr noundef %7, ptr noundef nonnull @.str.345, ptr noundef null) #9
  %9 = tail call i32 @test_ptr(ptr noundef nonnull @.str.18, i32 noundef 3325, ptr noundef nonnull @.str.344, ptr noundef %8) #9
  %.not = icmp eq i32 %9, 0
  br i1 %.not, label %32, label %10

10:                                               ; preds = %0
  store i64 20, ptr %2, align 8, !tbaa !15
  call void @llvm.memset.p0.i64(ptr noundef nonnull align 16 dereferenceable(20) %1, i8 0, i64 20, i1 false)
  %11 = tail call i32 @EVP_PKEY_derive_init(ptr noundef %8) #9
  %12 = tail call i32 @test_int_gt(ptr noundef nonnull @.str.18, i32 noundef 3331, ptr noundef nonnull @.str.346, ptr noundef nonnull @.str.112, i32 noundef %11, i32 noundef 0) #9
  %.not8 = icmp eq i32 %12, 0
  br i1 %.not8, label %32, label %13

13:                                               ; preds = %10
  %14 = tail call ptr @EVP_sha256() #9
  %15 = tail call i32 @EVP_PKEY_CTX_set_hkdf_md(ptr noundef %8, ptr noundef %14) #9
  %16 = tail call i32 @test_int_gt(ptr noundef nonnull @.str.18, i32 noundef 3332, ptr noundef nonnull @.str.347, ptr noundef nonnull @.str.112, i32 noundef %15, i32 noundef 0) #9
  %.not9 = icmp eq i32 %16, 0
  br i1 %.not9, label %32, label %17

17:                                               ; preds = %13
  %18 = call i32 @EVP_PKEY_CTX_set1_hkdf_salt(ptr noundef %8, ptr noundef nonnull %3, i32 noundef 10) #9
  %19 = call i32 @test_int_gt(ptr noundef nonnull @.str.18, i32 noundef 3334, ptr noundef nonnull @.str.348, ptr noundef nonnull @.str.112, i32 noundef %18, i32 noundef 0) #9
  %.not10 = icmp eq i32 %19, 0
  br i1 %.not10, label %32, label %20

20:                                               ; preds = %17
  %21 = call i32 @EVP_PKEY_CTX_set1_hkdf_key(ptr noundef %8, ptr noundef nonnull %4, i32 noundef 0) #9
  %22 = call i32 @test_int_gt(ptr noundef nonnull @.str.18, i32 noundef 3336, ptr noundef nonnull @.str.349, ptr noundef nonnull @.str.112, i32 noundef %21, i32 noundef 0) #9
  %.not11 = icmp eq i32 %22, 0
  br i1 %.not11, label %32, label %23

23:                                               ; preds = %20
  %24 = call i32 @EVP_PKEY_CTX_add1_hkdf_info(ptr noundef %8, ptr noundef nonnull %5, i32 noundef 10) #9
  %25 = call i32 @test_int_gt(ptr noundef nonnull @.str.18, i32 noundef 3338, ptr noundef nonnull @.str.350, ptr noundef nonnull @.str.112, i32 noundef %24, i32 noundef 0) #9
  %.not12 = icmp eq i32 %25, 0
  br i1 %.not12, label %32, label %26

26:                                               ; preds = %23
  %27 = call i32 @EVP_PKEY_derive(ptr noundef %8, ptr noundef nonnull %1, ptr noundef nonnull %2) #9
  %28 = call i32 @test_int_gt(ptr noundef nonnull @.str.18, i32 noundef 3339, ptr noundef nonnull @.str.351, ptr noundef nonnull @.str.112, i32 noundef %27, i32 noundef 0) #9
  %.not13 = icmp eq i32 %28, 0
  br i1 %.not13, label %32, label %29

29:                                               ; preds = %26
  %30 = load i64, ptr %2, align 8, !tbaa !15
  %31 = call i32 @test_mem_eq(ptr noundef nonnull @.str.18, i32 noundef 3340, ptr noundef nonnull @.str.352, ptr noundef nonnull @.str.158, ptr noundef nonnull %1, i64 noundef %30, ptr noundef nonnull %6, i64 noundef 20) #9
  %.not14 = icmp ne i32 %31, 0
  %spec.select = zext i1 %.not14 to i32
  br label %32

32:                                               ; preds = %29, %10, %13, %17, %20, %23, %26, %0
  %.0 = phi i32 [ 0, %26 ], [ 0, %23 ], [ 0, %20 ], [ 0, %17 ], [ 0, %13 ], [ 0, %10 ], [ 0, %0 ], [ %spec.select, %29 ]
  call void @EVP_PKEY_CTX_free(ptr noundef %8) #9
  call void @llvm.lifetime.end.p0(i64 20, ptr nonnull %6) #9
  call void @llvm.lifetime.end.p0(i64 11, ptr nonnull %5) #9
  call void @llvm.lifetime.end.p0(i64 1, ptr nonnull %4) #9
  call void @llvm.lifetime.end.p0(i64 11, ptr nonnull %3) #9
  call void @llvm.lifetime.end.p0(i64 8, ptr nonnull %2) #9
  call void @llvm.lifetime.end.p0(i64 20, ptr nonnull %1) #9
  ret i32 %.0
}